; Function Attrs: nounwind uwtable
define ptr @Hop_IthVar(ptr noundef %0, i32 noundef %1) local_unnamed_addr #0 {
  %3 = getelementptr i8, ptr %0, i64 80
  %.val = load i32, ptr %3, align 8, !tbaa !3
  %.not8 = icmp sgt i32 %.val, %1
  br i1 %.not8, label %._crit_edge, label %.lr.ph

.lr.ph:                                           ; preds = %2, %.lr.ph
  %.09 = phi i32 [ %5, %.lr.ph ], [ %.val, %2 ]
  %4 = tail call ptr @Hop_ObjCreatePi(ptr noundef %0) #2
  %5 = add i32 %.09, 1
  %exitcond.not = icmp eq i32 %.09, %1
  br i1 %exitcond.not, label %._crit_edge, label %.lr.ph, !llvm.loop !7

._crit_edge:                                      ; preds = %.lr.ph, %2
  %.val7 = load ptr, ptr %0, align 8, !tbaa !9
  %6 = getelementptr i8, ptr %.val7, i64 8
  %.val7.val = load ptr, ptr %6, align 8, !tbaa !17
  %7 = sext i32 %1 to i64
  %8 = getelementptr inbounds ptr, ptr %.val7.val, i64 %7
  %9 = load ptr, ptr %8, align 8, !tbaa !19
  ret ptr %9
}